target datalayout = "e-m:e-p270:32:32-p271:32:32-p272:64:64-i64:64-i128:128-f80:128-n8:16:32:64-S128"
target triple = "x86_64-pc-linux-gnu"

%struct._zval_struct = type { %union._zend_value, %union.anon, %union.anon.2 }
%union._zend_value = type { i64 }
%union.anon = type { i32 }
%union.anon.2 = type { i32 }
%struct._zend_array = type { %struct._zend_refcounted_h, %union.anon.4, i32, %union.anon.6, i32, i32, i32, i32, i64, ptr }
%struct._zend_refcounted_h = type { i32, %union.anon.3 }
%union.anon.3 = type { i32 }
%union.anon.4 = type { i32 }
%union.anon.6 = type { ptr }
%struct.stat = type { i64, i64, i64, i32, i32, i32, i32, i64, i64, i64, i64, %struct.timespec, %struct.timespec, %struct.timespec, [3 x i64] }
%struct.timespec = type { i64, i64 }
%struct.php_cli_server_client = type { ptr, i32, ptr, i32, ptr, %struct.php_http_parser, i8, ptr, ptr, i32, i64, %struct.php_cli_server_request, i8, %struct.php_cli_server_content_sender, i32 }
%struct.php_http_parser = type { i8, i8, i8, i8, i32, i64, i16, i16, i16, i8, i8, ptr }
%struct.php_cli_server_request = type { i32, i32, ptr, ptr, i64, ptr, i64, ptr, i64, ptr, i64, %struct._zend_array, %struct._zend_array, ptr, i64, ptr, i64, %struct.stat }
%struct.php_cli_server_content_sender = type { %struct.php_cli_server_buffer }
%struct.php_cli_server_buffer = type { ptr, ptr }
%struct._zend_string = type { %struct._zend_refcounted_h, i64, i64, [1 x i8] }

@.str.2246 = private unnamed_addr constant [11 x i8] c"set-cookie\00", align 1
@.str.2247 = private unnamed_addr constant [3 x i8] c", \00", align 1

; Function Attrs: alwaysinline nounwind uwtable
define internal i32 @zend_gc_delref(ptr noundef %0) #13 {
  %2 = alloca ptr, align 8
  store ptr %0, ptr %2, align 8, !tbaa !152
  %3 = load ptr, ptr %2, align 8, !tbaa !152
  %4 = getelementptr inbounds nuw %struct._zend_refcounted_h, ptr %3, i32 0, i32 0
  %5 = load i32, ptr %4, align 4, !tbaa !154
  %6 = icmp ugt i32 %5, 0
  call void @llvm.assume(i1 %6)
  br label %7

7:                                                ; preds = %1
  br label %8

8:                                                ; preds = %7
  %9 = load ptr, ptr %2, align 8, !tbaa !152
  %10 = getelementptr inbounds nuw %struct._zend_refcounted_h, ptr %9, i32 0, i32 0
  %11 = load i32, ptr %10, align 4, !tbaa !154
  %12 = add i32 %11, -1
  store i32 %12, ptr %10, align 4, !tbaa !154
  ret i32 %12
}

; Function Attrs: alwaysinline nounwind uwtable
define internal i32 @zend_gc_set_refcount(ptr noundef %0, i32 noundef %1) #13 {
  %3 = alloca ptr, align 8
  %4 = alloca i32, align 4
  store ptr %0, ptr %3, align 8, !tbaa !152
  store i32 %1, ptr %4, align 4, !tbaa !117
  %5 = load i32, ptr %4, align 4, !tbaa !117
  %6 = load ptr, ptr %3, align 8, !tbaa !152
  %7 = getelementptr inbounds nuw %struct._zend_refcounted_h, ptr %6, i32 0, i32 0
  store i32 %5, ptr %7, align 4, !tbaa !154
  %8 = load ptr, ptr %3, align 8, !tbaa !152
  %9 = getelementptr inbounds nuw %struct._zend_refcounted_h, ptr %8, i32 0, i32 0
  %10 = load i32, ptr %9, align 4, !tbaa !154
  ret i32 %10
}

; Function Attrs: alwaysinline nounwind uwtable
define internal void @zend_string_release_ex(ptr noundef %0, i1 noundef zeroext %1) #13 {
  %3 = alloca ptr, align 8
  %4 = alloca i8, align 1
  store ptr %0, ptr %3, align 8, !tbaa !104
  %5 = zext i1 %1 to i8
  store i8 %5, ptr %4, align 1, !tbaa !69
  %6 = load ptr, ptr %3, align 8, !tbaa !104
  %7 = getelementptr inbounds nuw %struct._zend_string, ptr %6, i32 0, i32 0
  %8 = getelementptr inbounds nuw %struct._zend_refcounted_h, ptr %7, i32 0, i32 1
  %9 = load i32, ptr %8, align 4, !tbaa !11
  %10 = call i32 @zval_gc_flags(i32 noundef %9)
  %11 = and i32 %10, 64
  %12 = icmp ne i32 %11, 0
  br i1 %12, label %27, label %13

13:                                               ; preds = %2
  %14 = load ptr, ptr %3, align 8, !tbaa !104
  %15 = getelementptr inbounds nuw %struct._zend_string, ptr %14, i32 0, i32 0
  %16 = call i32 @zend_gc_delref(ptr noundef %15)
  %17 = icmp eq i32 %16, 0
  br i1 %17, label %18, label %26

18:                                               ; preds = %13
  %19 = load i8, ptr %4, align 1, !tbaa !69, !range !70, !noundef !71
  %20 = trunc i8 %19 to i1
  br i1 %20, label %21, label %23

21:                                               ; preds = %18
  %22 = load ptr, ptr %3, align 8, !tbaa !104
  call void @free(ptr noundef %22) #20
  br label %25

23:                                               ; preds = %18
  %24 = load ptr, ptr %3, align 8, !tbaa !104
  call void @_efree(ptr noundef %24)
  br label %25

25:                                               ; preds = %23, %21
  br label %26

26:                                               ; preds = %25, %13
  br label %27

27:                                               ; preds = %26, %2
  ret void
}

; Function Attrs: alwaysinline nounwind uwtable
define internal ptr @zend_string_safe_alloc(i64 noundef %0, i64 noundef %1, i64 noundef %2, i1 noundef zeroext %3) #13 {
  %5 = alloca i64, align 8
  %6 = alloca i64, align 8
  %7 = alloca i64, align 8
  %8 = alloca i8, align 1
  %9 = alloca ptr, align 8
  store i64 %0, ptr %5, align 8, !tbaa !68
  store i64 %1, ptr %6, align 8, !tbaa !68
  store i64 %2, ptr %7, align 8, !tbaa !68
  %10 = zext i1 %3 to i8
  store i8 %10, ptr %8, align 1, !tbaa !69
  call void @llvm.lifetime.start.p0(i64 8, ptr %9) #20
  %11 = load i8, ptr %8, align 1, !tbaa !69, !range !70, !noundef !71
  %12 = trunc i8 %11 to i1
  br i1 %12, label %13, label %23

13:                                               ; preds = %4
  %14 = load i64, ptr %5, align 8, !tbaa !68
  %15 = load i64, ptr %6, align 8, !tbaa !68
  %16 = load i64, ptr %7, align 8, !tbaa !68
  %17 = add i64 24, %16
  %18 = add i64 %17, 1
  %19 = add i64 %18, 8
  %20 = sub i64 %19, 1
  %21 = and i64 %20, -8
  %22 = call noalias ptr @_safe_malloc(i64 noundef %14, i64 noundef %15, i64 noundef %21)
  br label %33

23:                                               ; preds = %4
  %24 = load i64, ptr %5, align 8, !tbaa !68
  %25 = load i64, ptr %6, align 8, !tbaa !68
  %26 = load i64, ptr %7, align 8, !tbaa !68
  %27 = add i64 24, %26
  %28 = add i64 %27, 1
  %29 = add i64 %28, 8
  %30 = sub i64 %29, 1
  %31 = and i64 %30, -8
  %32 = call noalias ptr @_safe_emalloc(i64 noundef %24, i64 noundef %25, i64 noundef %31)
  br label %33

33:                                               ; preds = %23, %13
  %34 = phi ptr [ %22, %13 ], [ %32, %23 ]
  store ptr %34, ptr %9, align 8, !tbaa !104
  %35 = load ptr, ptr %9, align 8, !tbaa !104
  %36 = getelementptr inbounds nuw %struct._zend_string, ptr %35, i32 0, i32 0
  %37 = call i32 @zend_gc_set_refcount(ptr noundef %36, i32 noundef 1)
  %38 = load i8, ptr %8, align 1, !tbaa !69, !range !70, !noundef !71
  %39 = trunc i8 %38 to i1
  %40 = select i1 %39, i32 128, i32 0
  %41 = shl i32 %40, 0
  %42 = or i32 22, %41
  %43 = load ptr, ptr %9, align 8, !tbaa !104
  %44 = getelementptr inbounds nuw %struct._zend_string, ptr %43, i32 0, i32 0
  %45 = getelementptr inbounds nuw %struct._zend_refcounted_h, ptr %44, i32 0, i32 1
  store i32 %42, ptr %45, align 4, !tbaa !11
  %46 = load ptr, ptr %9, align 8, !tbaa !104
  %47 = getelementptr inbounds nuw %struct._zend_string, ptr %46, i32 0, i32 1
  store i64 0, ptr %47, align 8, !tbaa !162
  %48 = load i64, ptr %5, align 8, !tbaa !68
  %49 = load i64, ptr %6, align 8, !tbaa !68
  %50 = mul i64 %48, %49
  %51 = load i64, ptr %7, align 8, !tbaa !68
  %52 = add i64 %50, %51
  %53 = load ptr, ptr %9, align 8, !tbaa !104
  %54 = getelementptr inbounds nuw %struct._zend_string, ptr %53, i32 0, i32 2
  store i64 %52, ptr %54, align 8, !tbaa !91
  %55 = load ptr, ptr %9, align 8, !tbaa !104
  call void @llvm.lifetime.end.p0(i64 8, ptr %9) #20
  ret ptr %55
}

; Function Attrs: alwaysinline nounwind uwtable
define internal i32 @zval_gc_flags(i32 noundef %0) #13 {
  %2 = alloca i32, align 4
  store i32 %0, ptr %2, align 4, !tbaa !117
  %3 = load i32, ptr %2, align 4, !tbaa !117
  %4 = lshr i32 %3, 0
  %5 = and i32 %4, 1008
  ret i32 %5
}

; Function Attrs: alwaysinline nounwind uwtable
define internal zeroext i1 @zend_string_equals_cstr(ptr noundef %0, ptr noundef %1, i64 noundef %2) #13 {
  %4 = alloca ptr, align 8
  %5 = alloca ptr, align 8
  %6 = alloca i64, align 8
  store ptr %0, ptr %4, align 8, !tbaa !104
  store ptr %1, ptr %5, align 8, !tbaa !67
  store i64 %2, ptr %6, align 8, !tbaa !68
  %7 = load ptr, ptr %4, align 8, !tbaa !104
  %8 = getelementptr inbounds nuw %struct._zend_string, ptr %7, i32 0, i32 2
  %9 = load i64, ptr %8, align 8, !tbaa !91
  %10 = load i64, ptr %6, align 8, !tbaa !68
  %11 = icmp eq i64 %9, %10
  br i1 %11, label %12, label %21

12:                                               ; preds = %3
  %13 = load ptr, ptr %4, align 8, !tbaa !104
  %14 = getelementptr inbounds nuw %struct._zend_string, ptr %13, i32 0, i32 3
  %15 = getelementptr inbounds [1 x i8], ptr %14, i64 0, i64 0
  %16 = load ptr, ptr %5, align 8, !tbaa !67
  %17 = load i64, ptr %6, align 8, !tbaa !68
  %18 = call i32 @memcmp(ptr noundef %15, ptr noundef %16, i64 noundef %17) #21
  %19 = icmp ne i32 %18, 0
  %20 = xor i1 %19, true
  br label %21

21:                                               ; preds = %12, %3
  %22 = phi i1 [ false, %3 ], [ %20, %12 ]
  ret i1 %22
}

; Function Attrs: nounwind uwtable
define internal void @php_cli_server_client_save_header(ptr noundef %0) #0 {
  %2 = alloca ptr, align 8
  %3 = alloca %struct._zval_struct, align 8
  %4 = alloca ptr, align 8
  %5 = alloca ptr, align 8
  %6 = alloca i8, align 1
  %7 = alloca ptr, align 8
  %8 = alloca ptr, align 8
  %9 = alloca ptr, align 8
  %10 = alloca ptr, align 8
  %11 = alloca ptr, align 8
  %12 = alloca ptr, align 8
  store ptr %0, ptr %2, align 8, !tbaa !60
  call void @llvm.lifetime.start.p0(i64 16, ptr %3) #20
  call void @llvm.lifetime.start.p0(i64 8, ptr %4) #20
  %13 = load ptr, ptr %2, align 8, !tbaa !60
  %14 = getelementptr inbounds nuw %struct.php_cli_server_client, ptr %13, i32 0, i32 7
  %15 = load ptr, ptr %14, align 8, !tbaa !218
  %16 = call ptr @zend_string_tolower_ex(ptr noundef %15, i1 noundef zeroext true)
  store ptr %16, ptr %4, align 8, !tbaa !104
  br label %17

17:                                               ; preds = %1
  br label %18

18:                                               ; preds = %17
  br label %19

19:                                               ; preds = %18
  call void @llvm.lifetime.start.p0(i64 8, ptr %5) #20
  %20 = load ptr, ptr %2, align 8, !tbaa !60
  %21 = getelementptr inbounds nuw %struct.php_cli_server_client, ptr %20, i32 0, i32 11
  %22 = getelementptr inbounds nuw %struct.php_cli_server_request, ptr %21, i32 0, i32 11
  %23 = load ptr, ptr %4, align 8, !tbaa !104
  %24 = call ptr @zend_hash_find(ptr noundef %22, ptr noundef %23)
  store ptr %24, ptr %5, align 8, !tbaa !9
  call void @llvm.lifetime.start.p0(i64 1, ptr %6) #20
  %25 = load ptr, ptr %4, align 8, !tbaa !104
  %26 = call zeroext i1 @zend_string_equals_cstr(ptr noundef %25, ptr noundef @.str.2246, i64 noundef 10)
  %27 = xor i1 %26, true
  %28 = zext i1 %27 to i8
  store i8 %28, ptr %6, align 1, !tbaa !69
  %29 = load i8, ptr %6, align 1, !tbaa !69, !range !70, !noundef !71
  %30 = trunc i8 %29 to i1
  br i1 %30, label %31, label %34

31:                                               ; preds = %19
  %32 = load ptr, ptr %5, align 8, !tbaa !9
  %33 = icmp eq ptr %32, null
  br i1 %33, label %34, label %54

34:                                               ; preds = %31, %19
  br label %35

35:                                               ; preds = %34
  call void @llvm.lifetime.start.p0(i64 8, ptr %7) #20
  store ptr %3, ptr %7, align 8, !tbaa !9
  call void @llvm.lifetime.start.p0(i64 8, ptr %8) #20
  %36 = load ptr, ptr %2, align 8, !tbaa !60
  %37 = getelementptr inbounds nuw %struct.php_cli_server_client, ptr %36, i32 0, i32 8
  %38 = load ptr, ptr %37, align 8, !tbaa !219
  store ptr %38, ptr %8, align 8, !tbaa !104
  %39 = load ptr, ptr %8, align 8, !tbaa !104
  %40 = load ptr, ptr %7, align 8, !tbaa !9
  %41 = getelementptr inbounds nuw %struct._zval_struct, ptr %40, i32 0, i32 0
  store ptr %39, ptr %41, align 8, !tbaa !11
  %42 = load ptr, ptr %8, align 8, !tbaa !104
  %43 = getelementptr inbounds nuw %struct._zend_string, ptr %42, i32 0, i32 0
  %44 = getelementptr inbounds nuw %struct._zend_refcounted_h, ptr %43, i32 0, i32 1
  %45 = load i32, ptr %44, align 4, !tbaa !11
  %46 = call i32 @zval_gc_flags(i32 noundef %45)
  %47 = and i32 %46, 64
  %48 = icmp ne i32 %47, 0
  %49 = select i1 %48, i32 6, i32 262
  %50 = load ptr, ptr %7, align 8, !tbaa !9
  %51 = getelementptr inbounds nuw %struct._zval_struct, ptr %50, i32 0, i32 1
  store i32 %49, ptr %51, align 8, !tbaa !11
  call void @llvm.lifetime.end.p0(i64 8, ptr %8) #20
  call void @llvm.lifetime.end.p0(i64 8, ptr %7) #20
  br label %52

52:                                               ; preds = %35
  br label %53

53:                                               ; preds = %52
  br label %120

54:                                               ; preds = %31
  call void @llvm.lifetime.start.p0(i64 8, ptr %9) #20
  %55 = load ptr, ptr %5, align 8, !tbaa !9
  %56 = getelementptr inbounds nuw %struct._zval_struct, ptr %55, i32 0, i32 0
  %57 = load ptr, ptr %56, align 8, !tbaa !11
  store ptr %57, ptr %9, align 8, !tbaa !104
  call void @llvm.lifetime.start.p0(i64 8, ptr %10) #20
  %58 = load ptr, ptr %9, align 8, !tbaa !104
  %59 = getelementptr inbounds nuw %struct._zend_string, ptr %58, i32 0, i32 2
  %60 = load i64, ptr %59, align 8, !tbaa !91
  %61 = load ptr, ptr %2, align 8, !tbaa !60
  %62 = getelementptr inbounds nuw %struct.php_cli_server_client, ptr %61, i32 0, i32 8
  %63 = load ptr, ptr %62, align 8, !tbaa !219
  %64 = getelementptr inbounds nuw %struct._zend_string, ptr %63, i32 0, i32 2
  %65 = load i64, ptr %64, align 8, !tbaa !91
  %66 = add i64 %65, 2
  %67 = call ptr @zend_string_safe_alloc(i64 noundef 1, i64 noundef %60, i64 noundef %66, i1 noundef zeroext true)
  store ptr %67, ptr %10, align 8, !tbaa !104
  %68 = load ptr, ptr %10, align 8, !tbaa !104
  %69 = getelementptr inbounds nuw %struct._zend_string, ptr %68, i32 0, i32 3
  %70 = getelementptr inbounds [1 x i8], ptr %69, i64 0, i64 0
  %71 = load ptr, ptr %9, align 8, !tbaa !104
  %72 = getelementptr inbounds nuw %struct._zend_string, ptr %71, i32 0, i32 3
  %73 = getelementptr inbounds [1 x i8], ptr %72, i64 0, i64 0
  %74 = load ptr, ptr %9, align 8, !tbaa !104
  %75 = getelementptr inbounds nuw %struct._zend_string, ptr %74, i32 0, i32 2
  %76 = load i64, ptr %75, align 8, !tbaa !91
  call void @llvm.memcpy.p0.p0.i64(ptr align 8 %70, ptr align 8 %73, i64 %76, i1 false)
  %77 = load ptr, ptr %10, align 8, !tbaa !104
  %78 = getelementptr inbounds nuw %struct._zend_string, ptr %77, i32 0, i32 3
  %79 = getelementptr inbounds [1 x i8], ptr %78, i64 0, i64 0
  %80 = load ptr, ptr %9, align 8, !tbaa !104
  %81 = getelementptr inbounds nuw %struct._zend_string, ptr %80, i32 0, i32 2
  %82 = load i64, ptr %81, align 8, !tbaa !91
  %83 = getelementptr inbounds nuw i8, ptr %79, i64 %82
  call void @llvm.memcpy.p0.p0.i64(ptr align 1 %83, ptr align 1 @.str.2247, i64 2, i1 false)
  %84 = load ptr, ptr %10, align 8, !tbaa !104
  %85 = getelementptr inbounds nuw %struct._zend_string, ptr %84, i32 0, i32 3
  %86 = getelementptr inbounds [1 x i8], ptr %85, i64 0, i64 0
  %87 = load ptr, ptr %9, align 8, !tbaa !104
  %88 = getelementptr inbounds nuw %struct._zend_string, ptr %87, i32 0, i32 2
  %89 = load i64, ptr %88, align 8, !tbaa !91
  %90 = getelementptr inbounds nuw i8, ptr %86, i64 %89
  %91 = getelementptr inbounds i8, ptr %90, i64 2
  %92 = load ptr, ptr %2, align 8, !tbaa !60
  %93 = getelementptr inbounds nuw %struct.php_cli_server_client, ptr %92, i32 0, i32 8
  %94 = load ptr, ptr %93, align 8, !tbaa !219
  %95 = getelementptr inbounds nuw %struct._zend_string, ptr %94, i32 0, i32 3
  %96 = getelementptr inbounds [1 x i8], ptr %95, i64 0, i64 0
  %97 = load ptr, ptr %2, align 8, !tbaa !60
  %98 = getelementptr inbounds nuw %struct.php_cli_server_client, ptr %97, i32 0, i32 8
  %99 = load ptr, ptr %98, align 8, !tbaa !219
  %100 = getelementptr inbounds nuw %struct._zend_string, ptr %99, i32 0, i32 2
  %101 = load i64, ptr %100, align 8, !tbaa !91
  %102 = add i64 %101, 1
  call void @llvm.memcpy.p0.p0.i64(ptr align 1 %91, ptr align 8 %96, i64 %102, i1 false)
  br label %103

103:                                              ; preds = %54
  call void @llvm.lifetime.start.p0(i64 8, ptr %11) #20
  store ptr %3, ptr %11, align 8, !tbaa !9
  call void @llvm.lifetime.start.p0(i64 8, ptr %12) #20
  %104 = load ptr, ptr %10, align 8, !tbaa !104
  store ptr %104, ptr %12, align 8, !tbaa !104
  %105 = load ptr, ptr %12, align 8, !tbaa !104
  %106 = load ptr, ptr %11, align 8, !tbaa !9
  %107 = getelementptr inbounds nuw %struct._zval_struct, ptr %106, i32 0, i32 0
  store ptr %105, ptr %107, align 8, !tbaa !11
  %108 = load ptr, ptr %12, align 8, !tbaa !104
  %109 = getelementptr inbounds nuw %struct._zend_string, ptr %108, i32 0, i32 0
  %110 = getelementptr inbounds nuw %struct._zend_refcounted_h, ptr %109, i32 0, i32 1
  %111 = load i32, ptr %110, align 4, !tbaa !11
  %112 = call i32 @zval_gc_flags(i32 noundef %111)
  %113 = and i32 %112, 64
  %114 = icmp ne i32 %113, 0
  %115 = select i1 %114, i32 6, i32 262
  %116 = load ptr, ptr %11, align 8, !tbaa !9
  %117 = getelementptr inbounds nuw %struct._zval_struct, ptr %116, i32 0, i32 1
  store i32 %115, ptr %117, align 8, !tbaa !11
  call void @llvm.lifetime.end.p0(i64 8, ptr %12) #20
  call void @llvm.lifetime.end.p0(i64 8, ptr %11) #20
  br label %118

118:                                              ; preds = %103
  br label %119

119:                                              ; preds = %118
  call void @llvm.lifetime.end.p0(i64 8, ptr %10) #20
  call void @llvm.lifetime.end.p0(i64 8, ptr %9) #20
  br label %120

120:                                              ; preds = %119, %53
  %121 = load ptr, ptr %2, align 8, !tbaa !60
  %122 = getelementptr inbounds nuw %struct.php_cli_server_client, ptr %121, i32 0, i32 11
  %123 = getelementptr inbounds nuw %struct.php_cli_server_request, ptr %122, i32 0, i32 11
  %124 = load ptr, ptr %4, align 8, !tbaa !104
  %125 = call ptr @zend_hash_update(ptr noundef %123, ptr noundef %124, ptr noundef %3)
  %126 = load ptr, ptr %2, align 8, !tbaa !60
  %127 = getelementptr inbounds nuw %struct.php_cli_server_client, ptr %126, i32 0, i32 11
  %128 = getelementptr inbounds nuw %struct.php_cli_server_request, ptr %127, i32 0, i32 12
  %129 = load ptr, ptr %2, align 8, !tbaa !60
  %130 = getelementptr inbounds nuw %struct.php_cli_server_client, ptr %129, i32 0, i32 7
  %131 = load ptr, ptr %130, align 8, !tbaa !218
  %132 = call ptr @zend_hash_update(ptr noundef %128, ptr noundef %131, ptr noundef %3)
  %133 = load ptr, ptr %4, align 8, !tbaa !104
  call void @zend_string_release_ex(ptr noundef %133, i1 noundef zeroext true)
  %134 = load ptr, ptr %2, align 8, !tbaa !60
  %135 = getelementptr inbounds nuw %struct.php_cli_server_client, ptr %134, i32 0, i32 7
  %136 = load ptr, ptr %135, align 8, !tbaa !218
  call void @zend_string_release_ex(ptr noundef %136, i1 noundef zeroext true)
  %137 = load ptr, ptr %2, align 8, !tbaa !60
  %138 = getelementptr inbounds nuw %struct.php_cli_server_client, ptr %137, i32 0, i32 7
  store ptr null, ptr %138, align 8, !tbaa !218
  %139 = load ptr, ptr %2, align 8, !tbaa !60
  %140 = getelementptr inbounds nuw %struct.php_cli_server_client, ptr %139, i32 0, i32 8
  store ptr null, ptr %140, align 8, !tbaa !219
  call void @llvm.lifetime.end.p0(i64 1, ptr %6) #20
  call void @llvm.lifetime.end.p0(i64 8, ptr %5) #20
  call void @llvm.lifetime.end.p0(i64 8, ptr %4) #20
  call void @llvm.lifetime.end.p0(i64 16, ptr %3) #20
  ret void
}