; Function Attrs: nounwind uwtable
define internal fastcc void @php_cli_server_client_save_header(ptr noundef %0) unnamed_addr #0 {
  %2 = alloca %struct._zval_struct, align 8
  call void @llvm.lifetime.start.p0(i64 16, ptr nonnull %2) #29
  %3 = getelementptr inbounds nuw i8, ptr %0, i64 80
  %4 = load ptr, ptr %3, align 8, !tbaa !210
  %5 = tail call ptr @zend_string_tolower_ex(ptr noundef %4, i1 noundef zeroext true) #29
  %6 = getelementptr inbounds nuw i8, ptr %0, i64 192
  %7 = tail call ptr @zend_hash_find(ptr noundef nonnull %6, ptr noundef %5) #29
  %8 = getelementptr inbounds nuw i8, ptr %5, i64 16
  %9 = load i64, ptr %8, align 8, !tbaa !86
  %10 = icmp eq i64 %9, 10
  br i1 %10, label %11, label %zend_string_equals_cstr.exit

11:                                               ; preds = %1
  %12 = getelementptr inbounds nuw i8, ptr %5, i64 24
  %bcmp.i = tail call i32 @bcmp(ptr noundef nonnull dereferenceable(10) %12, ptr noundef nonnull dereferenceable(10) @.str.2246, i64 10)
  %.not.i39 = icmp eq i32 %bcmp.i, 0
  br label %zend_string_equals_cstr.exit

zend_string_equals_cstr.exit:                     ; preds = %1, %11
  %13 = phi i1 [ false, %1 ], [ %.not.i39, %11 ]
  %14 = icmp eq ptr %7, null
  %or.cond = select i1 %13, i1 true, i1 %14
  br i1 %or.cond, label %15, label %22

15:                                               ; preds = %zend_string_equals_cstr.exit
  %16 = getelementptr inbounds nuw i8, ptr %0, i64 88
  %17 = load ptr, ptr %16, align 8, !tbaa !211
  store ptr %17, ptr %2, align 8, !tbaa !4
  %18 = getelementptr inbounds nuw i8, ptr %17, i64 4
  %19 = load i32, ptr %18, align 4, !tbaa !4
  %20 = and i32 %19, 64
  %.not36 = icmp eq i32 %20, 0
  %21 = select i1 %.not36, i32 262, i32 6
  br label %48

22:                                               ; preds = %zend_string_equals_cstr.exit
  %23 = load ptr, ptr %7, align 8, !tbaa !4
  %24 = getelementptr inbounds nuw i8, ptr %23, i64 16
  %25 = load i64, ptr %24, align 8, !tbaa !86
  %26 = getelementptr inbounds nuw i8, ptr %0, i64 88
  %27 = load ptr, ptr %26, align 8, !tbaa !211
  %28 = getelementptr inbounds nuw i8, ptr %27, i64 16
  %29 = load i64, ptr %28, align 8, !tbaa !86
  %30 = add i64 %29, 2
  %31 = and i64 %30, -8
  %32 = add i64 %31, 32
  %33 = tail call noalias ptr @_safe_malloc(i64 noundef 1, i64 noundef %25, i64 noundef %32) #29
  store i32 1, ptr %33, align 4, !tbaa !91
  %34 = getelementptr inbounds nuw i8, ptr %33, i64 4
  store i32 150, ptr %34, align 4, !tbaa !4
  %35 = getelementptr inbounds nuw i8, ptr %33, i64 8
  store i64 0, ptr %35, align 8, !tbaa !102
  %36 = add i64 %30, %25
  %37 = getelementptr inbounds nuw i8, ptr %33, i64 16
  store i64 %36, ptr %37, align 8, !tbaa !86
  %38 = getelementptr inbounds nuw i8, ptr %33, i64 24
  %39 = getelementptr inbounds nuw i8, ptr %23, i64 24
  %40 = load i64, ptr %24, align 8, !tbaa !86
  tail call void @llvm.memcpy.p0.p0.i64(ptr nonnull align 8 %38, ptr nonnull align 8 %39, i64 %40, i1 false)
  %41 = getelementptr inbounds nuw i8, ptr %38, i64 %40
  store i16 8236, ptr %41, align 1
  %42 = getelementptr inbounds nuw i8, ptr %41, i64 2
  %43 = load ptr, ptr %26, align 8, !tbaa !211
  %44 = getelementptr inbounds nuw i8, ptr %43, i64 24
  %45 = getelementptr inbounds nuw i8, ptr %43, i64 16
  %46 = load i64, ptr %45, align 8, !tbaa !86
  %47 = add i64 %46, 1
  tail call void @llvm.memcpy.p0.p0.i64(ptr nonnull align 1 %42, ptr nonnull align 8 %44, i64 %47, i1 false)
  store ptr %33, ptr %2, align 8, !tbaa !4
  br label %48

48:                                               ; preds = %22, %15
  %.sink = phi i32 [ %21, %15 ], [ 262, %22 ]
  %49 = getelementptr inbounds nuw i8, ptr %2, i64 8
  store i32 %.sink, ptr %49, align 8, !tbaa !4
  %50 = call ptr @zend_hash_update(ptr noundef nonnull %6, ptr noundef nonnull %5, ptr noundef nonnull %2) #29
  %51 = getelementptr inbounds nuw i8, ptr %0, i64 248
  %52 = load ptr, ptr %3, align 8, !tbaa !210
  %53 = call ptr @zend_hash_update(ptr noundef nonnull %51, ptr noundef %52, ptr noundef nonnull %2) #29
  %54 = getelementptr inbounds nuw i8, ptr %5, i64 4
  %55 = load i32, ptr %54, align 4, !tbaa !4
  %56 = and i32 %55, 64
  %.not.i37 = icmp eq i32 %56, 0
  br i1 %.not.i37, label %57, label %zend_string_release_ex.exit38

57:                                               ; preds = %48
  %58 = load i32, ptr %5, align 4, !tbaa !91
  %59 = icmp ne i32 %58, 0
  call void @llvm.assume(i1 %59)
  %60 = add i32 %58, -1
  store i32 %60, ptr %5, align 4, !tbaa !91
  %61 = icmp eq i32 %60, 0
  br i1 %61, label %62, label %zend_string_release_ex.exit38

62:                                               ; preds = %57
  call void @free(ptr noundef nonnull %5) #29
  br label %zend_string_release_ex.exit38

zend_string_release_ex.exit38:                    ; preds = %48, %57, %62
  %63 = load ptr, ptr %3, align 8, !tbaa !210
  %64 = getelementptr inbounds nuw i8, ptr %63, i64 4
  %65 = load i32, ptr %64, align 4, !tbaa !4
  %66 = and i32 %65, 64
  %.not.i = icmp eq i32 %66, 0
  br i1 %.not.i, label %67, label %zend_string_release_ex.exit

67:                                               ; preds = %zend_string_release_ex.exit38
  %68 = load i32, ptr %63, align 4, !tbaa !91
  %69 = icmp ne i32 %68, 0
  call void @llvm.assume(i1 %69)
  %70 = add i32 %68, -1
  store i32 %70, ptr %63, align 4, !tbaa !91
  %71 = icmp eq i32 %70, 0
  br i1 %71, label %72, label %zend_string_release_ex.exit

72:                                               ; preds = %67
  call void @free(ptr noundef nonnull %63) #29
  br label %zend_string_release_ex.exit

zend_string_release_ex.exit:                      ; preds = %zend_string_release_ex.exit38, %67, %72
  call void @llvm.memset.p0.i64(ptr noundef nonnull align 8 dereferenceable(16) %3, i8 0, i64 16, i1 false)
  call void @llvm.lifetime.end.p0(i64 16, ptr nonnull %2) #29
  ret void
}